target datalayout = "e-m:e-p270:32:32-p271:32:32-p272:64:64-i64:64-i128:128-f80:128-n8:16:32:64-S128"
target triple = "x86_64-pc-linux-gnu"

%struct.X509_pubkey_st = type { ptr, ptr, ptr, ptr, ptr, i8 }

; Function Attrs: nounwind uwtable
define void @X509_PUBKEY_set0_public_key(ptr noundef %0, ptr noundef %1, i32 noundef %2) #0 {
  %4 = alloca ptr, align 8
  %5 = alloca ptr, align 8
  %6 = alloca i32, align 4
  store ptr %0, ptr %4, align 8, !tbaa !14
  store ptr %1, ptr %5, align 8, !tbaa !12
  store i32 %2, ptr %6, align 4, !tbaa !43
  %7 = load ptr, ptr %4, align 8, !tbaa !14
  %8 = getelementptr inbounds nuw %struct.X509_pubkey_st, ptr %7, i32 0, i32 1
  %9 = load ptr, ptr %8, align 8, !tbaa !26
  %10 = load ptr, ptr %5, align 8, !tbaa !12
  %11 = load i32, ptr %6, align 4, !tbaa !43
  call void @ASN1_STRING_set0(ptr noundef %9, ptr noundef %10, i32 noundef %11)
  %12 = load ptr, ptr %4, align 8, !tbaa !14
  %13 = getelementptr inbounds nuw %struct.X509_pubkey_st, ptr %12, i32 0, i32 1
  %14 = load ptr, ptr %13, align 8, !tbaa !26
  call void @ossl_asn1_string_set_bits_left(ptr noundef %14, i32 noundef 0)
  ret void
}

; Function Attrs: nounwind uwtable
define i32 @X509_PUBKEY_set0_param(ptr noundef %0, ptr noundef %1, i32 noundef %2, ptr noundef %3, ptr noundef %4, i32 noundef %5) #0 {
  %7 = alloca i32, align 4
  %8 = alloca ptr, align 8
  %9 = alloca ptr, align 8
  %10 = alloca i32, align 4
  %11 = alloca ptr, align 8
  %12 = alloca ptr, align 8
  %13 = alloca i32, align 4
  store ptr %0, ptr %8, align 8, !tbaa !14
  store ptr %1, ptr %9, align 8, !tbaa !94
  store i32 %2, ptr %10, align 4, !tbaa !43
  store ptr %3, ptr %11, align 8, !tbaa !63
  store ptr %4, ptr %12, align 8, !tbaa !12
  store i32 %5, ptr %13, align 4, !tbaa !43
  %14 = load ptr, ptr %8, align 8, !tbaa !14
  %15 = getelementptr inbounds nuw %struct.X509_pubkey_st, ptr %14, i32 0, i32 0
  %16 = load ptr, ptr %15, align 8, !tbaa !25
  %17 = load ptr, ptr %9, align 8, !tbaa !94
  %18 = load i32, ptr %10, align 4, !tbaa !43
  %19 = load ptr, ptr %11, align 8, !tbaa !63
  %20 = call i32 @X509_ALGOR_set0(ptr noundef %16, ptr noundef %17, i32 noundef %18, ptr noundef %19)
  %21 = icmp ne i32 %20, 0
  br i1 %21, label %23, label %22

22:                                               ; preds = %6
  store i32 0, ptr %7, align 4
  br label %31

23:                                               ; preds = %6
  %24 = load ptr, ptr %12, align 8, !tbaa !12
  %25 = icmp ne ptr %24, null
  br i1 %25, label %26, label %30

26:                                               ; preds = %23
  %27 = load ptr, ptr %8, align 8, !tbaa !14
  %28 = load ptr, ptr %12, align 8, !tbaa !12
  %29 = load i32, ptr %13, align 4, !tbaa !43
  call void @X509_PUBKEY_set0_public_key(ptr noundef %27, ptr noundef %28, i32 noundef %29)
  br label %30

30:                                               ; preds = %26, %23
  store i32 1, ptr %7, align 4
  br label %31

31:                                               ; preds = %30, %22
  %32 = load i32, ptr %7, align 4
  ret i32 %32
}