; Function Attrs: nounwind uwtable
define range(i32 0, 2) i32 @X509_PUBKEY_set0_param(ptr noundef readonly captures(none) %0, ptr noundef %1, i32 noundef %2, ptr noundef %3, ptr noundef %4, i32 noundef %5) local_unnamed_addr #0 {
  %7 = load ptr, ptr %0, align 8, !tbaa !17
  %8 = tail call i32 @X509_ALGOR_set0(ptr noundef %7, ptr noundef %1, i32 noundef %2, ptr noundef %3) #9
  %.not = icmp eq i32 %8, 0
  br i1 %.not, label %14, label %9

9:                                                ; preds = %6
  %.not9 = icmp eq ptr %4, null
  br i1 %.not9, label %14, label %10

10:                                               ; preds = %9
  %11 = getelementptr inbounds nuw i8, ptr %0, i64 8
  %12 = load ptr, ptr %11, align 8, !tbaa !18
  tail call void @ASN1_STRING_set0(ptr noundef %12, ptr noundef nonnull %4, i32 noundef %5) #9
  %13 = load ptr, ptr %11, align 8, !tbaa !18
  tail call void @ossl_asn1_string_set_bits_left(ptr noundef %13, i32 noundef 0) #9
  br label %14

14:                                               ; preds = %9, %10, %6
  %.0 = phi i32 [ 0, %6 ], [ 1, %10 ], [ 1, %9 ]
  ret i32 %.0
}